target datalayout = "e-m:e-p270:32:32-p271:32:32-p272:64:64-i64:64-i128:128-f80:128-n8:16:32:64-S128"
target triple = "x86_64-pc-linux-gnu"

@stderr = external global ptr, align 8
@.str.233 = private unnamed_addr constant [7 x i8] c"| %7d \00", align 1
@.str.234 = private unnamed_addr constant [17 x i8] c"| %7d  (%.1f%%)\0A\00", align 1

; Function Attrs: nounwind uwtable
define internal void @PrintByteCount(ptr noundef %0, i32 noundef %1, ptr noundef %2) #0 {
  %4 = alloca ptr, align 8
  %5 = alloca i32, align 4
  %6 = alloca ptr, align 8
  %7 = alloca i32, align 4
  %8 = alloca i32, align 4
  store ptr %0, ptr %4, align 8
  store i32 %1, ptr %5, align 4
  store ptr %2, ptr %6, align 8
  store i32 0, ptr %8, align 4
  store i32 0, ptr %7, align 4
  br label %9

9:                                                ; preds = %42, %3
  %10 = load i32, ptr %7, align 4
  %11 = icmp slt i32 %10, 4
  br i1 %11, label %12, label %45

12:                                               ; preds = %9
  %13 = load ptr, ptr @stderr, align 8
  %14 = load ptr, ptr %4, align 8
  %15 = load i32, ptr %7, align 4
  %16 = sext i32 %15 to i64
  %17 = getelementptr inbounds i32, ptr %14, i64 %16
  %18 = load i32, ptr %17, align 4
  %19 = call i32 (ptr, ptr, ...) @fprintf(ptr noundef %13, ptr noundef @.str.233, i32 noundef %18) #6
  %20 = load ptr, ptr %4, align 8
  %21 = load i32, ptr %7, align 4
  %22 = sext i32 %21 to i64
  %23 = getelementptr inbounds i32, ptr %20, i64 %22
  %24 = load i32, ptr %23, align 4
  %25 = load i32, ptr %8, align 4
  %26 = add nsw i32 %25, %24
  store i32 %26, ptr %8, align 4
  %27 = load ptr, ptr %6, align 8
  %28 = icmp ne ptr %27, null
  br i1 %28, label %29, label %41

29:                                               ; preds = %12
  %30 = load ptr, ptr %4, align 8
  %31 = load i32, ptr %7, align 4
  %32 = sext i32 %31 to i64
  %33 = getelementptr inbounds i32, ptr %30, i64 %32
  %34 = load i32, ptr %33, align 4
  %35 = load ptr, ptr %6, align 8
  %36 = load i32, ptr %7, align 4
  %37 = sext i32 %36 to i64
  %38 = getelementptr inbounds i32, ptr %35, i64 %37
  %39 = load i32, ptr %38, align 4
  %40 = add nsw i32 %39, %34
  store i32 %40, ptr %38, align 4
  br label %41

41:                                               ; preds = %29, %12
  br label %42

42:                                               ; preds = %41
  %43 = load i32, ptr %7, align 4
  %44 = add nsw i32 %43, 1
  store i32 %44, ptr %7, align 4
  br label %9, !llvm.loop !20

45:                                               ; preds = %9
  %46 = load ptr, ptr @stderr, align 8
  %47 = load i32, ptr %8, align 4
  %48 = load i32, ptr %8, align 4
  %49 = sitofp i32 %48 to float
  %50 = fmul float 1.000000e+02, %49
  %51 = load i32, ptr %5, align 4
  %52 = sitofp i32 %51 to float
  %53 = fdiv float %50, %52
  %54 = fpext float %53 to double
  %55 = call i32 (ptr, ptr, ...) @fprintf(ptr noundef %46, ptr noundef @.str.234, i32 noundef %47, double noundef %54) #6
  ret void
}