; Function Attrs: nofree nounwind uwtable
define internal fastcc void @PrintByteCount(ptr nocapture noundef readonly %0, i32 noundef %1, ptr noundef %2) unnamed_addr #3 {
  %.not = icmp eq ptr %2, null
  br i1 %.not, label %.split.us, label %.split

.split.us:                                        ; preds = %3, %.split.us
  %indvars.iv23 = phi i64 [ %indvars.iv.next24, %.split.us ], [ 0, %3 ]
  %.017.us = phi i32 [ %9, %.split.us ], [ 0, %3 ]
  %4 = load ptr, ptr @stderr, align 8
  %5 = getelementptr inbounds i32, ptr %0, i64 %indvars.iv23
  %6 = load i32, ptr %5, align 4
  %7 = tail call i32 (ptr, ptr, ...) @fprintf(ptr noundef %4, ptr noundef nonnull @.str.233, i32 noundef %6) #14
  %8 = load i32, ptr %5, align 4
  %9 = add nsw i32 %8, %.017.us
  %indvars.iv.next24 = add nuw nsw i64 %indvars.iv23, 1
  %exitcond26.not = icmp eq i64 %indvars.iv.next24, 4
  br i1 %exitcond26.not, label %.split19.us, label %.split.us, !llvm.loop !23

.split:                                           ; preds = %3, %.split
  %indvars.iv = phi i64 [ %indvars.iv.next, %.split ], [ 0, %3 ]
  %.017 = phi i32 [ %15, %.split ], [ 0, %3 ]
  %10 = load ptr, ptr @stderr, align 8
  %11 = getelementptr inbounds i32, ptr %0, i64 %indvars.iv
  %12 = load i32, ptr %11, align 4
  %13 = tail call i32 (ptr, ptr, ...) @fprintf(ptr noundef %10, ptr noundef nonnull @.str.233, i32 noundef %12) #14
  %14 = load i32, ptr %11, align 4
  %15 = add nsw i32 %14, %.017
  %16 = getelementptr inbounds i32, ptr %2, i64 %indvars.iv
  %17 = load i32, ptr %16, align 4
  %18 = add nsw i32 %17, %14
  store i32 %18, ptr %16, align 4
  %indvars.iv.next = add nuw nsw i64 %indvars.iv, 1
  %exitcond.not = icmp eq i64 %indvars.iv.next, 4
  br i1 %exitcond.not, label %.split19.us, label %.split, !llvm.loop !23

.split19.us:                                      ; preds = %.split, %.split.us
  %.us-phi = phi i32 [ %9, %.split.us ], [ %15, %.split ]
  %19 = load ptr, ptr @stderr, align 8
  %20 = sitofp i32 %.us-phi to float
  %21 = fmul float %20, 1.000000e+02
  %22 = sitofp i32 %1 to float
  %23 = fdiv float %21, %22
  %24 = fpext float %23 to double
  %25 = tail call i32 (ptr, ptr, ...) @fprintf(ptr noundef %19, ptr noundef nonnull @.str.234, i32 noundef %.us-phi, double noundef %24) #14
  ret void
}